target datalayout = "e-m:e-p270:32:32-p271:32:32-p272:64:64-i64:64-i128:128-f80:128-n8:16:32:64-S128"
target triple = "x86_64-pc-linux-gnu"

%struct.ZSTD_customMem = type { ptr, ptr, ptr }
%struct.ZSTD_frameParameters = type { i32, i32, i32 }
%struct.ZSTD_compressionParameters = type { i32, i32, i32, i32, i32, i32, i32 }
%struct.ZSTD_CCtx_s = type { i32, i32, i32, %struct.ZSTD_CCtx_params_s, %struct.ZSTD_CCtx_params_s, %struct.ZSTD_CCtx_params_s, i32, i64, %struct.ZSTD_cwksp, i64, i64, i64, i64, %struct.XXH64_state_s, %struct.ZSTD_customMem, ptr, i64, %struct.SeqCollector, i32, i32, %struct.seqStore_t, %struct.ldmState_t, ptr, i64, %struct.rawSeqStore_t, %struct.ZSTD_blockState_t, ptr, i32, ptr, i64, i64, i64, i64, ptr, i64, i64, i64, i32, i32, %struct.ZSTD_inBuffer_s, i64, i64, %struct.ZSTD_localDict, ptr, %struct.ZSTD_prefixDict_s, i64, %struct.ZSTD_blockSplitCtx, %struct.ZSTD_externalMatchCtx }
%struct.ZSTD_CCtx_params_s = type { i32, %struct.ZSTD_compressionParameters, %struct.ZSTD_frameParameters, i32, i32, i64, i32, i32, i32, i32, i64, i32, i32, %struct.ldmParams_t, i32, i32, i32, i32, i32, i32, i32, i32, %struct.ZSTD_customMem, i32, i32, i32, i64, i32 }
%struct.ldmParams_t = type { i32, i32, i32, i32, i32, i32 }
%struct.ZSTD_cwksp = type { ptr, ptr, ptr, ptr, ptr, ptr, ptr, i8, i32, i32, i32 }
%struct.XXH64_state_s = type { i64, [4 x i64], [4 x i64], i32, i32, i64 }
%struct.SeqCollector = type { i32, ptr, i64, i64 }
%struct.seqStore_t = type { ptr, ptr, ptr, ptr, ptr, ptr, ptr, i64, i64, i32, i32 }
%struct.ldmState_t = type { %struct.ZSTD_window_t, ptr, i32, ptr, [64 x i64], [64 x %struct.ldmMatchCandidate_t] }
%struct.ZSTD_window_t = type { ptr, ptr, ptr, i32, i32, i32 }
%struct.ldmMatchCandidate_t = type { ptr, i32, i32, ptr }
%struct.rawSeqStore_t = type { ptr, i64, i64, i64, i64 }
%struct.ZSTD_blockState_t = type { ptr, ptr, %struct.ZSTD_matchState_t }
%struct.ZSTD_matchState_t = type { %struct.ZSTD_window_t, i32, i32, i32, i32, ptr, [8 x i32], i64, i32, ptr, ptr, ptr, i32, i32, %struct.optState_t, ptr, %struct.ZSTD_compressionParameters, ptr, i32, i32 }
%struct.optState_t = type { ptr, ptr, ptr, ptr, ptr, ptr, i32, i32, i32, i32, i32, i32, i32, i32, i32, ptr, i32 }
%struct.ZSTD_inBuffer_s = type { ptr, i64, i64 }
%struct.ZSTD_localDict = type { ptr, ptr, i64, i32, ptr }
%struct.ZSTD_prefixDict_s = type { ptr, i64, i32 }
%struct.ZSTD_blockSplitCtx = type { %struct.seqStore_t, %struct.seqStore_t, %struct.seqStore_t, %struct.seqStore_t, %struct.seqStore_t, [196 x i32], %struct.ZSTD_entropyCTablesMetadata_t }
%struct.ZSTD_entropyCTablesMetadata_t = type { %struct.ZSTD_hufCTablesMetadata_t, %struct.ZSTD_fseCTablesMetadata_t }
%struct.ZSTD_hufCTablesMetadata_t = type { i32, [128 x i8], i64 }
%struct.ZSTD_fseCTablesMetadata_t = type { i32, i32, i32, [133 x i8], i64, i64 }
%struct.ZSTD_externalMatchCtx = type { ptr, ptr, ptr, i64 }

; Function Attrs: nounwind uwtable
define internal ptr @ZSTD_customMalloc(i64 noundef %0, ptr noundef byval(%struct.ZSTD_customMem) align 8 %1) #0 {
  %3 = alloca ptr, align 8
  %4 = alloca i64, align 8
  store i64 %0, ptr %4, align 8
  %5 = getelementptr inbounds %struct.ZSTD_customMem, ptr %1, i32 0, i32 0
  %6 = load ptr, ptr %5, align 8
  %7 = icmp ne ptr %6, null
  br i1 %7, label %8, label %15

8:                                                ; preds = %2
  %9 = getelementptr inbounds %struct.ZSTD_customMem, ptr %1, i32 0, i32 0
  %10 = load ptr, ptr %9, align 8
  %11 = getelementptr inbounds %struct.ZSTD_customMem, ptr %1, i32 0, i32 2
  %12 = load ptr, ptr %11, align 8
  %13 = load i64, ptr %4, align 8
  %14 = call ptr %10(ptr noundef %12, i64 noundef %13)
  store ptr %14, ptr %3, align 8
  br label %18

15:                                               ; preds = %2
  %16 = load i64, ptr %4, align 8
  %17 = call noalias ptr @malloc(i64 noundef %16) #9
  store ptr %17, ptr %3, align 8
  br label %18

18:                                               ; preds = %15, %8
  %19 = load ptr, ptr %3, align 8
  ret ptr %19
}

; Function Attrs: nounwind uwtable
define dso_local i64 @ZSTD_CCtx_loadDictionary_advanced(ptr noundef %0, ptr noundef %1, i64 noundef %2, i32 noundef %3, i32 noundef %4) #0 {
  %6 = alloca i64, align 8
  %7 = alloca ptr, align 8
  %8 = alloca ptr, align 8
  %9 = alloca i64, align 8
  %10 = alloca i32, align 4
  %11 = alloca i32, align 4
  %12 = alloca ptr, align 8
  store ptr %0, ptr %7, align 8
  store ptr %1, ptr %8, align 8
  store i64 %2, ptr %9, align 8
  store i32 %3, ptr %10, align 4
  store i32 %4, ptr %11, align 4
  %13 = load ptr, ptr %7, align 8
  %14 = getelementptr inbounds %struct.ZSTD_CCtx_s, ptr %13, i32 0, i32 37
  %15 = load i32, ptr %14, align 8
  %16 = icmp ne i32 %15, 0
  br i1 %16, label %17, label %18

17:                                               ; preds = %5
  store i64 -60, ptr %6, align 8
  br label %69

18:                                               ; preds = %5
  %19 = load ptr, ptr %7, align 8
  call void @ZSTD_clearAllDicts(ptr noundef %19)
  %20 = load ptr, ptr %8, align 8
  %21 = icmp eq ptr %20, null
  br i1 %21, label %25, label %22

22:                                               ; preds = %18
  %23 = load i64, ptr %9, align 8
  %24 = icmp eq i64 %23, 0
  br i1 %24, label %25, label %26

25:                                               ; preds = %22, %18
  store i64 0, ptr %6, align 8
  br label %69

26:                                               ; preds = %22
  %27 = load i32, ptr %10, align 4
  %28 = icmp eq i32 %27, 1
  br i1 %28, label %29, label %34

29:                                               ; preds = %26
  %30 = load ptr, ptr %8, align 8
  %31 = load ptr, ptr %7, align 8
  %32 = getelementptr inbounds %struct.ZSTD_CCtx_s, ptr %31, i32 0, i32 42
  %33 = getelementptr inbounds %struct.ZSTD_localDict, ptr %32, i32 0, i32 1
  store ptr %30, ptr %33, align 8
  br label %60

34:                                               ; preds = %26
  %35 = load ptr, ptr %7, align 8
  %36 = getelementptr inbounds %struct.ZSTD_CCtx_s, ptr %35, i32 0, i32 16
  %37 = load i64, ptr %36, align 8
  %38 = icmp ne i64 %37, 0
  br i1 %38, label %39, label %40

39:                                               ; preds = %34
  store i64 -64, ptr %6, align 8
  br label %69

40:                                               ; preds = %34
  %41 = load i64, ptr %9, align 8
  %42 = load ptr, ptr %7, align 8
  %43 = getelementptr inbounds %struct.ZSTD_CCtx_s, ptr %42, i32 0, i32 14
  %44 = call ptr @ZSTD_customMalloc(i64 noundef %41, ptr noundef byval(%struct.ZSTD_customMem) align 8 %43)
  store ptr %44, ptr %12, align 8
  %45 = load ptr, ptr %12, align 8
  %46 = icmp eq ptr %45, null
  br i1 %46, label %47, label %48

47:                                               ; preds = %40
  store i64 -64, ptr %6, align 8
  br label %69

48:                                               ; preds = %40
  %49 = load ptr, ptr %12, align 8
  %50 = load ptr, ptr %8, align 8
  %51 = load i64, ptr %9, align 8
  call void @llvm.memcpy.p0.p0.i64(ptr align 1 %49, ptr align 1 %50, i64 %51, i1 false)
  %52 = load ptr, ptr %12, align 8
  %53 = load ptr, ptr %7, align 8
  %54 = getelementptr inbounds %struct.ZSTD_CCtx_s, ptr %53, i32 0, i32 42
  %55 = getelementptr inbounds %struct.ZSTD_localDict, ptr %54, i32 0, i32 0
  store ptr %52, ptr %55, align 8
  %56 = load ptr, ptr %12, align 8
  %57 = load ptr, ptr %7, align 8
  %58 = getelementptr inbounds %struct.ZSTD_CCtx_s, ptr %57, i32 0, i32 42
  %59 = getelementptr inbounds %struct.ZSTD_localDict, ptr %58, i32 0, i32 1
  store ptr %56, ptr %59, align 8
  br label %60

60:                                               ; preds = %48, %29
  %61 = load i64, ptr %9, align 8
  %62 = load ptr, ptr %7, align 8
  %63 = getelementptr inbounds %struct.ZSTD_CCtx_s, ptr %62, i32 0, i32 42
  %64 = getelementptr inbounds %struct.ZSTD_localDict, ptr %63, i32 0, i32 2
  store i64 %61, ptr %64, align 8
  %65 = load i32, ptr %11, align 4
  %66 = load ptr, ptr %7, align 8
  %67 = getelementptr inbounds %struct.ZSTD_CCtx_s, ptr %66, i32 0, i32 42
  %68 = getelementptr inbounds %struct.ZSTD_localDict, ptr %67, i32 0, i32 3
  store i32 %65, ptr %68, align 8
  store i64 0, ptr %6, align 8
  br label %69

69:                                               ; preds = %60, %47, %39, %25, %17
  %70 = load i64, ptr %6, align 8
  ret i64 %70
}

; Function Attrs: nounwind uwtable
define dso_local i64 @ZSTD_CCtx_loadDictionary_byReference(ptr noundef %0, ptr noundef %1, i64 noundef %2) #0 {
  %4 = alloca ptr, align 8
  %5 = alloca ptr, align 8
  %6 = alloca i64, align 8
  store ptr %0, ptr %4, align 8
  store ptr %1, ptr %5, align 8
  store i64 %2, ptr %6, align 8
  %7 = load ptr, ptr %4, align 8
  %8 = load ptr, ptr %5, align 8
  %9 = load i64, ptr %6, align 8
  %10 = call i64 @ZSTD_CCtx_loadDictionary_advanced(ptr noundef %7, ptr noundef %8, i64 noundef %9, i32 noundef 1, i32 noundef 0)
  ret i64 %10
}